target datalayout = "e-m:e-p270:32:32-p271:32:32-p272:64:64-i64:64-i128:128-f80:128-n8:16:32:64-S128"
target triple = "x86_64-pc-linux-gnu"

%struct.code = type { i8, i8, i16 }
%struct.z_stream_s = type { ptr, i32, i64, ptr, i32, i64, ptr, ptr, ptr, ptr, ptr, i32, i64, i64 }
%struct.inflate_state = type { ptr, i32, i32, i32, i32, i32, i32, i64, i64, ptr, i32, i32, i32, i32, ptr, i64, i32, i32, i32, i32, ptr, ptr, i32, i32, i32, i32, i32, i32, ptr, [320 x i16], [288 x i16], [1444 x %struct.code], i32, i32, i32 }

; Function Attrs: nounwind uwtable
define internal i32 @inflateStateCheck(ptr noundef %0) #0 {
  %2 = alloca i32, align 4
  %3 = alloca ptr, align 8
  %4 = alloca ptr, align 8
  store ptr %0, ptr %3, align 8
  %5 = load ptr, ptr %3, align 8
  %6 = icmp eq ptr %5, null
  br i1 %6, label %17, label %7

7:                                                ; preds = %1
  %8 = load ptr, ptr %3, align 8
  %9 = getelementptr inbounds %struct.z_stream_s, ptr %8, i32 0, i32 8
  %10 = load ptr, ptr %9, align 8
  %11 = icmp eq ptr %10, null
  br i1 %11, label %17, label %12

12:                                               ; preds = %7
  %13 = load ptr, ptr %3, align 8
  %14 = getelementptr inbounds %struct.z_stream_s, ptr %13, i32 0, i32 9
  %15 = load ptr, ptr %14, align 8
  %16 = icmp eq ptr %15, null
  br i1 %16, label %17, label %18

17:                                               ; preds = %12, %7, %1
  store i32 1, ptr %2, align 4
  br label %42

18:                                               ; preds = %12
  %19 = load ptr, ptr %3, align 8
  %20 = getelementptr inbounds %struct.z_stream_s, ptr %19, i32 0, i32 7
  %21 = load ptr, ptr %20, align 8
  store ptr %21, ptr %4, align 8
  %22 = load ptr, ptr %4, align 8
  %23 = icmp eq ptr %22, null
  br i1 %23, label %40, label %24

24:                                               ; preds = %18
  %25 = load ptr, ptr %4, align 8
  %26 = getelementptr inbounds %struct.inflate_state, ptr %25, i32 0, i32 0
  %27 = load ptr, ptr %26, align 8
  %28 = load ptr, ptr %3, align 8
  %29 = icmp ne ptr %27, %28
  br i1 %29, label %40, label %30

30:                                               ; preds = %24
  %31 = load ptr, ptr %4, align 8
  %32 = getelementptr inbounds %struct.inflate_state, ptr %31, i32 0, i32 1
  %33 = load i32, ptr %32, align 8
  %34 = icmp ult i32 %33, 16180
  br i1 %34, label %40, label %35

35:                                               ; preds = %30
  %36 = load ptr, ptr %4, align 8
  %37 = getelementptr inbounds %struct.inflate_state, ptr %36, i32 0, i32 1
  %38 = load i32, ptr %37, align 8
  %39 = icmp ugt i32 %38, 16211
  br i1 %39, label %40, label %41

40:                                               ; preds = %35, %30, %24, %18
  store i32 1, ptr %2, align 4
  br label %42

41:                                               ; preds = %35
  store i32 0, ptr %2, align 4
  br label %42

42:                                               ; preds = %41, %40, %17
  %43 = load i32, ptr %2, align 4
  ret i32 %43
}

; Function Attrs: nounwind uwtable
define dso_local i32 @cm_zlib_inflatePrime(ptr noundef %0, i32 noundef %1, i32 noundef %2) #0 {
  %4 = alloca i32, align 4
  %5 = alloca ptr, align 8
  %6 = alloca i32, align 4
  %7 = alloca i32, align 4
  %8 = alloca ptr, align 8
  store ptr %0, ptr %5, align 8
  store i32 %1, ptr %6, align 4
  store i32 %2, ptr %7, align 4
  %9 = load ptr, ptr %5, align 8
  %10 = call i32 @inflateStateCheck(ptr noundef %9)
  %11 = icmp ne i32 %10, 0
  br i1 %11, label %12, label %13

12:                                               ; preds = %3
  store i32 -2, ptr %4, align 4
  br label %59

13:                                               ; preds = %3
  %14 = load ptr, ptr %5, align 8
  %15 = getelementptr inbounds %struct.z_stream_s, ptr %14, i32 0, i32 7
  %16 = load ptr, ptr %15, align 8
  store ptr %16, ptr %8, align 8
  %17 = load i32, ptr %6, align 4
  %18 = icmp slt i32 %17, 0
  br i1 %18, label %19, label %24

19:                                               ; preds = %13
  %20 = load ptr, ptr %8, align 8
  %21 = getelementptr inbounds %struct.inflate_state, ptr %20, i32 0, i32 15
  store i64 0, ptr %21, align 8
  %22 = load ptr, ptr %8, align 8
  %23 = getelementptr inbounds %struct.inflate_state, ptr %22, i32 0, i32 16
  store i32 0, ptr %23, align 8
  store i32 0, ptr %4, align 4
  br label %59

24:                                               ; preds = %13
  %25 = load i32, ptr %6, align 4
  %26 = icmp sgt i32 %25, 16
  br i1 %26, label %34, label %27

27:                                               ; preds = %24
  %28 = load ptr, ptr %8, align 8
  %29 = getelementptr inbounds %struct.inflate_state, ptr %28, i32 0, i32 16
  %30 = load i32, ptr %29, align 8
  %31 = load i32, ptr %6, align 4
  %32 = add i32 %30, %31
  %33 = icmp ugt i32 %32, 32
  br i1 %33, label %34, label %35

34:                                               ; preds = %27, %24
  store i32 -2, ptr %4, align 4
  br label %59

35:                                               ; preds = %27
  %36 = load i32, ptr %6, align 4
  %37 = zext i32 %36 to i64
  %38 = shl i64 1, %37
  %39 = sub nsw i64 %38, 1
  %40 = load i32, ptr %7, align 4
  %41 = sext i32 %40 to i64
  %42 = and i64 %41, %39
  %43 = trunc i64 %42 to i32
  store i32 %43, ptr %7, align 4
  %44 = load i32, ptr %7, align 4
  %45 = load ptr, ptr %8, align 8
  %46 = getelementptr inbounds %struct.inflate_state, ptr %45, i32 0, i32 16
  %47 = load i32, ptr %46, align 8
  %48 = shl i32 %44, %47
  %49 = zext i32 %48 to i64
  %50 = load ptr, ptr %8, align 8
  %51 = getelementptr inbounds %struct.inflate_state, ptr %50, i32 0, i32 15
  %52 = load i64, ptr %51, align 8
  %53 = add i64 %52, %49
  store i64 %53, ptr %51, align 8
  %54 = load i32, ptr %6, align 4
  %55 = load ptr, ptr %8, align 8
  %56 = getelementptr inbounds %struct.inflate_state, ptr %55, i32 0, i32 16
  %57 = load i32, ptr %56, align 8
  %58 = add i32 %57, %54
  store i32 %58, ptr %56, align 8
  store i32 0, ptr %4, align 4
  br label %59

59:                                               ; preds = %35, %34, %19, %12
  %60 = load i32, ptr %4, align 4
  ret i32 %60
}