; Function Attrs: mustprogress nofree norecurse nosync nounwind willreturn memory(readwrite, inaccessiblemem: none) uwtable
define dso_local range(i32 -2, 1) i32 @cm_zlib_inflatePrime(ptr noundef readonly %0, i32 noundef %1, i32 noundef %2) local_unnamed_addr #0 {
  %4 = icmp eq ptr %0, null
  br i1 %4, label %inflateStateCheck.exit.thread, label %5

5:                                                ; preds = %3
  %6 = getelementptr inbounds nuw i8, ptr %0, i64 64
  %7 = load ptr, ptr %6, align 8
  %8 = icmp eq ptr %7, null
  br i1 %8, label %inflateStateCheck.exit.thread, label %9

9:                                                ; preds = %5
  %10 = getelementptr inbounds nuw i8, ptr %0, i64 72
  %11 = load ptr, ptr %10, align 8
  %12 = icmp eq ptr %11, null
  br i1 %12, label %inflateStateCheck.exit.thread, label %13

13:                                               ; preds = %9
  %14 = getelementptr inbounds nuw i8, ptr %0, i64 56
  %15 = load ptr, ptr %14, align 8
  %16 = icmp eq ptr %15, null
  br i1 %16, label %inflateStateCheck.exit.thread, label %17

17:                                               ; preds = %13
  %18 = load ptr, ptr %15, align 8
  %.not.i = icmp eq ptr %18, %0
  br i1 %.not.i, label %inflateStateCheck.exit, label %inflateStateCheck.exit.thread

inflateStateCheck.exit:                           ; preds = %17
  %19 = getelementptr inbounds nuw i8, ptr %15, i64 8
  %20 = load i32, ptr %19, align 8
  %21 = add i32 %20, -16180
  %or.cond.i = icmp ult i32 %21, 32
  br i1 %or.cond.i, label %22, label %inflateStateCheck.exit.thread

22:                                               ; preds = %inflateStateCheck.exit
  %23 = icmp slt i32 %1, 0
  br i1 %23, label %24, label %27

24:                                               ; preds = %22
  %25 = getelementptr inbounds nuw i8, ptr %15, i64 80
  store i64 0, ptr %25, align 8
  %26 = getelementptr inbounds nuw i8, ptr %15, i64 88
  store i32 0, ptr %26, align 8
  br label %inflateStateCheck.exit.thread

27:                                               ; preds = %22
  %28 = icmp samesign ugt i32 %1, 16
  br i1 %28, label %inflateStateCheck.exit.thread, label %29

29:                                               ; preds = %27
  %30 = getelementptr inbounds nuw i8, ptr %15, i64 88
  %31 = load i32, ptr %30, align 8
  %32 = add i32 %31, %1
  %33 = icmp ugt i32 %32, 32
  br i1 %33, label %inflateStateCheck.exit.thread, label %34

34:                                               ; preds = %29
  %35 = zext nneg i32 %1 to i64
  %notmask = shl nsw i64 -1, %35
  %36 = trunc i64 %notmask to i32
  %37 = xor i32 %36, -1
  %38 = and i32 %2, %37
  %39 = shl i32 %38, %31
  %40 = zext i32 %39 to i64
  %41 = getelementptr inbounds nuw i8, ptr %15, i64 80
  %42 = load i64, ptr %41, align 8
  %43 = add i64 %42, %40
  store i64 %43, ptr %41, align 8
  store i32 %32, ptr %30, align 8
  br label %inflateStateCheck.exit.thread

inflateStateCheck.exit.thread:                    ; preds = %13, %17, %3, %5, %9, %27, %29, %inflateStateCheck.exit, %34, %24
  %.0 = phi i32 [ 0, %24 ], [ 0, %34 ], [ -2, %inflateStateCheck.exit ], [ -2, %29 ], [ -2, %27 ], [ -2, %9 ], [ -2, %5 ], [ -2, %3 ], [ -2, %17 ], [ -2, %13 ]
  ret i32 %.0
}